target datalayout = "e-m:e-p270:32:32-p271:32:32-p272:64:64-i64:64-i128:128-f80:128-n8:16:32:64-S128"
target triple = "x86_64-pc-linux-gnu"

%"class.duckdb::ListColumnWriter" = type { %"class.duckdb::ColumnWriter.base", %"class.duckdb::unique_ptr.21" }
%"class.duckdb::ColumnWriter.base" = type <{ ptr, ptr, i64, %"class.duckdb::vector.15", i64, i64, i8 }>
%"class.duckdb::vector.15" = type { %"class.std::vector.16" }
%"class.std::vector.16" = type { %"struct.std::_Vector_base.17" }
%"struct.std::_Vector_base.17" = type { %"struct.std::_Vector_base<std::__cxx11::basic_string<char>, std::allocator<std::__cxx11::basic_string<char>>>::_Vector_impl" }
%"struct.std::_Vector_base<std::__cxx11::basic_string<char>, std::allocator<std::__cxx11::basic_string<char>>>::_Vector_impl" = type { %"struct.std::_Vector_base<std::__cxx11::basic_string<char>, std::allocator<std::__cxx11::basic_string<char>>>::_Vector_impl_data" }
%"struct.std::_Vector_base<std::__cxx11::basic_string<char>, std::allocator<std::__cxx11::basic_string<char>>>::_Vector_impl_data" = type { ptr, ptr, ptr }
%"class.duckdb::unique_ptr.21" = type { %"class.std::unique_ptr.22" }
%"class.std::unique_ptr.22" = type { %"struct.std::__uniq_ptr_data.23" }
%"struct.std::__uniq_ptr_data.23" = type { %"class.std::__uniq_ptr_impl.24" }
%"class.std::__uniq_ptr_impl.24" = type { %"class.std::tuple.25" }
%"class.std::tuple.25" = type { %"struct.std::_Tuple_impl.26" }
%"struct.std::_Tuple_impl.26" = type { %"struct.std::_Head_base.29" }
%"struct.std::_Head_base.29" = type { ptr }

; Function Attrs: mustprogress uwtable
define noundef zeroext i1 @_ZN6duckdb16ListColumnWriter10HasAnalyzeEv(ptr noundef nonnull align 8 dereferenceable(80) %0) unnamed_addr #0 align 2 {
  %2 = alloca ptr, align 8
  store ptr %0, ptr %2, align 8, !tbaa !363
  %3 = load ptr, ptr %2, align 8
  %4 = getelementptr inbounds nuw %"class.duckdb::ListColumnWriter", ptr %3, i32 0, i32 1
  %5 = call noundef ptr @_ZNK6duckdb10unique_ptrINS_12ColumnWriterESt14default_deleteIS1_ELb1EEptEv(ptr noundef nonnull align 8 dereferenceable(8) %4)
  %6 = load ptr, ptr %5, align 8, !tbaa !16
  %7 = getelementptr inbounds ptr, ptr %6, i64 3
  %8 = load ptr, ptr %7, align 8
  %9 = call noundef zeroext i1 %8(ptr noundef nonnull align 8 dereferenceable(65) %5)
  ret i1 %9
}