; Function Attrs: mustprogress uwtable
define noundef zeroext i1 @_ZN6duckdb16ListColumnWriter10HasAnalyzeEv(ptr noundef nonnull align 8 dereferenceable(80) %0) unnamed_addr #0 align 2 {
  %2 = getelementptr inbounds nuw i8, ptr %0, i64 72
  %3 = tail call noundef ptr @_ZNK6duckdb10unique_ptrINS_12ColumnWriterESt14default_deleteIS1_ELb1EEptEv(ptr noundef nonnull align 8 dereferenceable(8) %2)
  %4 = load ptr, ptr %3, align 8, !tbaa !3
  %5 = getelementptr inbounds nuw i8, ptr %4, i64 24
  %6 = load ptr, ptr %5, align 8
  %7 = tail call noundef zeroext i1 %6(ptr noundef nonnull align 8 dereferenceable(65) %3)
  ret i1 %7
}